target datalayout = "e-m:e-p270:32:32-p271:32:32-p272:64:64-i64:64-i128:128-f80:128-n8:16:32:64-S128"
target triple = "x86_64-pc-linux-gnu"

%struct.sq_queue_s = type { ptr, ptr }
%struct.mutex_s = type { %struct.sem_s, i32 }
%struct.sem_s = type { i16, i8, %struct.dq_queue_s, ptr }
%struct.dq_queue_s = type { ptr, ptr }
%struct.rmutex_s = type { %struct.mutex_s, i32 }
%struct.mm_map_s = type { %struct.sq_queue_s, i64, %struct.rmutex_s }
%struct.sq_entry_s = type { ptr }

; Function Attrs: nounwind uwtable
define ptr @mm_map_next(ptr noundef %0, ptr noundef %1) #0 {
  %3 = alloca ptr, align 8
  %4 = alloca ptr, align 8
  %5 = alloca ptr, align 8
  store ptr %0, ptr %3, align 8
  store ptr %1, ptr %4, align 8
  store ptr null, ptr %5, align 8
  %6 = load ptr, ptr %3, align 8
  %7 = getelementptr inbounds %struct.mm_map_s, ptr %6, i32 0, i32 2
  %8 = call i32 @nxrmutex_lock(ptr noundef %7)
  %9 = icmp eq i32 %8, 0
  br i1 %9, label %10, label %26

10:                                               ; preds = %2
  %11 = load ptr, ptr %4, align 8
  %12 = icmp eq ptr %11, null
  br i1 %12, label %13, label %18

13:                                               ; preds = %10
  %14 = load ptr, ptr %3, align 8
  %15 = getelementptr inbounds %struct.mm_map_s, ptr %14, i32 0, i32 0
  %16 = getelementptr inbounds %struct.sq_queue_s, ptr %15, i32 0, i32 0
  %17 = load ptr, ptr %16, align 8
  store ptr %17, ptr %5, align 8
  br label %22

18:                                               ; preds = %10
  %19 = load ptr, ptr %4, align 8
  %20 = getelementptr inbounds %struct.sq_entry_s, ptr %19, i32 0, i32 0
  %21 = load ptr, ptr %20, align 8
  store ptr %21, ptr %5, align 8
  br label %22

22:                                               ; preds = %18, %13
  %23 = load ptr, ptr %3, align 8
  %24 = getelementptr inbounds %struct.mm_map_s, ptr %23, i32 0, i32 2
  %25 = call i32 @nxrmutex_unlock(ptr noundef %24)
  br label %26

26:                                               ; preds = %22, %2
  %27 = load ptr, ptr %5, align 8
  ret ptr %27
}