; Function Attrs: nounwind uwtable
define ptr @mm_map_next(ptr noundef %0, ptr noundef readonly %1) local_unnamed_addr #0 {
  %3 = getelementptr inbounds nuw i8, ptr %0, i64 24
  %4 = tail call i32 @nxrmutex_lock(ptr noundef nonnull %3) #6
  %5 = icmp eq i32 %4, 0
  br i1 %5, label %6, label %9

6:                                                ; preds = %2
  %7 = icmp eq ptr %1, null
  %. = select i1 %7, ptr %0, ptr %1
  %.1 = load ptr, ptr %., align 8
  %8 = tail call i32 @nxrmutex_unlock(ptr noundef nonnull %3) #6
  br label %9

9:                                                ; preds = %6, %2
  %.0 = phi ptr [ %.1, %6 ], [ null, %2 ]
  ret ptr %.0
}